; ModuleID = '7/1106.c'
source_filename = "7/1106.c"
target datalayout = "e-m:e-p270:32:32-p271:32:32-p272:64:64-i64:64-f80:128-n8:16:32:64-S128"
target triple = "x86_64-pc-linux-gnu"

@.str = private unnamed_addr constant [7 x i8] c"%s%s%s\00", align 1
@.str.1 = private unnamed_addr constant [3 x i8] c"%c\00", align 1

; Function Attrs: noinline nounwind uwtable
define dso_local i32 @main(i32 %0, i8** %1) #0 {
  %3 = alloca i32, align 4
  %4 = alloca i32, align 4
  %5 = alloca i8**, align 8
  %6 = alloca [256 x i8], align 16
  %7 = alloca [256 x i8], align 16
  %8 = alloca [256 x i8], align 16
  %9 = alloca i32, align 4
  %10 = alloca i32, align 4
  %11 = alloca i32, align 4
  %12 = alloca i32, align 4
  %13 = alloca i32, align 4
  store i32 0, i32* %3, align 4
  store i32 %0, i32* %4, align 4
  store i8** %1, i8*** %5, align 8
  %14 = getelementptr inbounds [256 x i8], [256 x i8]* %6, i64 0, i64 0
  %15 = getelementptr inbounds [256 x i8], [256 x i8]* %7, i64 0, i64 0
  %16 = getelementptr inbounds [256 x i8], [256 x i8]* %8, i64 0, i64 0
  %17 = call i32 (i8*, ...) @__isoc99_scanf(i8* getelementptr inbounds ([7 x i8], [7 x i8]* @.str, i64 0, i64 0), i8* %14, i8* %15, i8* %16)
  %18 = getelementptr inbounds [256 x i8], [256 x i8]* %6, i64 0, i64 0
  %19 = call i64 @strlen(i8* %18) #3
  %20 = trunc i64 %19 to i32
  store i32 %20, i32* %12, align 4
  %21 = getelementptr inbounds [256 x i8], [256 x i8]* %7, i64 0, i64 0
  %22 = call i64 @strlen(i8* %21) #3
  %23 = trunc i64 %22 to i32
  store i32 %23, i32* %11, align 4
  store i32 0, i32* %9, align 4
  br label %24

24:                                               ; preds = %102, %2
  %25 = load i32, i32* %9, align 4
  %26 = load i32, i32* %12, align 4
  %27 = icmp slt i32 %25, %26
  br i1 %27, label %28, label %105

28:                                               ; preds = %24
  %29 = getelementptr inbounds [256 x i8], [256 x i8]* %7, i64 0, i64 0
  %30 = load i8, i8* %29, align 16
  %31 = sext i8 %30 to i32
  %32 = load i32, i32* %9, align 4
  %33 = sext i32 %32 to i64
  %34 = getelementptr inbounds [256 x i8], [256 x i8]* %6, i64 0, i64 %33
  %35 = load i8, i8* %34, align 1
  %36 = sext i8 %35 to i32
  %37 = icmp eq i32 %31, %36
  br i1 %37, label %38, label %101

38:                                               ; preds = %28
  store i32 0, i32* %10, align 4
  br label %39

39:                                               ; preds = %59, %38
  %40 = load i32, i32* %10, align 4
  %41 = load i32, i32* %11, align 4
  %42 = icmp slt i32 %40, %41
  br i1 %42, label %43, label %62

43:                                               ; preds = %39
  %44 = load i32, i32* %10, align 4
  %45 = sext i32 %44 to i64
  %46 = getelementptr inbounds [256 x i8], [256 x i8]* %7, i64 0, i64 %45
  %47 = load i8, i8* %46, align 1
  %48 = sext i8 %47 to i32
  %49 = load i32, i32* %9, align 4
  %50 = load i32, i32* %10, align 4
  %51 = add nsw i32 %49, %50
  %52 = sext i32 %51 to i64
  %53 = getelementptr inbounds [256 x i8], [256 x i8]* %6, i64 0, i64 %52
  %54 = load i8, i8* %53, align 1
  %55 = sext i8 %54 to i32
  %56 = icmp ne i32 %48, %55
  br i1 %56, label %57, label %58

57:                                               ; preds = %43
  br label %62

58:                                               ; preds = %43
  br label %59

59:                                               ; preds = %58
  %60 = load i32, i32* %10, align 4
  %61 = add nsw i32 %60, 1
  store i32 %61, i32* %10, align 4
  br label %39

62:                                               ; preds = %57, %39
  %63 = load i32, i32* %10, align 4
  %64 = load i32, i32* %11, align 4
  %65 = icmp eq i32 %63, %64
  br i1 %65, label %66, label %100

66:                                               ; preds = %62
  store i32 0, i32* %13, align 4
  br label %67

67:                                               ; preds = %81, %66
  %68 = load i32, i32* %13, align 4
  %69 = load i32, i32* %11, align 4
  %70 = icmp slt i32 %68, %69
  br i1 %70, label %71, label %84

71:                                               ; preds = %67
  %72 = load i32, i32* %13, align 4
  %73 = sext i32 %72 to i64
  %74 = getelementptr inbounds [256 x i8], [256 x i8]* %8, i64 0, i64 %73
  %75 = load i8, i8* %74, align 1
  %76 = load i32, i32* %9, align 4
  %77 = load i32, i32* %13, align 4
  %78 = add nsw i32 %76, %77
  %79 = sext i32 %78 to i64
  %80 = getelementptr inbounds [256 x i8], [256 x i8]* %6, i64 0, i64 %79
  store i8 %75, i8* %80, align 1
  br label %81

81:                                               ; preds = %71
  %82 = load i32, i32* %13, align 4
  %83 = add nsw i32 %82, 1
  store i32 %83, i32* %13, align 4
  br label %67

84:                                               ; preds = %67
  store i32 0, i32* %13, align 4
  br label %85

85:                                               ; preds = %96, %84
  %86 = load i32, i32* %13, align 4
  %87 = load i32, i32* %12, align 4
  %88 = icmp slt i32 %86, %87
  br i1 %88, label %89, label %99

89:                                               ; preds = %85
  %90 = load i32, i32* %13, align 4
  %91 = sext i32 %90 to i64
  %92 = getelementptr inbounds [256 x i8], [256 x i8]* %6, i64 0, i64 %91
  %93 = load i8, i8* %92, align 1
  %94 = sext i8 %93 to i32
  %95 = call i32 (i8*, ...) @printf(i8* getelementptr inbounds ([3 x i8], [3 x i8]* @.str.1, i64 0, i64 0), i32 %94)
  br label %96

96:                                               ; preds = %89
  %97 = load i32, i32* %13, align 4
  %98 = add nsw i32 %97, 1
  store i32 %98, i32* %13, align 4
  br label %85

99:                                               ; preds = %85
  br label %105

100:                                              ; preds = %62
  br label %101

101:                                              ; preds = %100, %28
  br label %102

102:                                              ; preds = %101
  %103 = load i32, i32* %9, align 4
  %104 = add nsw i32 %103, 1
  store i32 %104, i32* %9, align 4
  br label %24

105:                                              ; preds = %99, %24
  %106 = load i32, i32* %9, align 4
  %107 = load i32, i32* %12, align 4
  %108 = icmp eq i32 %106, %107
  br i1 %108, label %109, label %125

109:                                              ; preds = %105
  store i32 0, i32* %13, align 4
  br label %110

110:                                              ; preds = %121, %109
  %111 = load i32, i32* %13, align 4
  %112 = load i32, i32* %12, align 4
  %113 = icmp slt i32 %111, %112
  br i1 %113, label %114, label %124

114:                                              ; preds = %110
  %115 = load i32, i32* %13, align 4
  %116 = sext i32 %115 to i64
  %117 = getelementptr inbounds [256 x i8], [256 x i8]* %6, i64 0, i64 %116
  %118 = load i8, i8* %117, align 1
  %119 = sext i8 %118 to i32
  %120 = call i32 (i8*, ...) @printf(i8* getelementptr inbounds ([3 x i8], [3 x i8]* @.str.1, i64 0, i64 0), i32 %119)
  br label %121

121:                                              ; preds = %114
  %122 = load i32, i32* %13, align 4
  %123 = add nsw i32 %122, 1
  store i32 %123, i32* %13, align 4
  br label %110

124:                                              ; preds = %110
  br label %125

125:                                              ; preds = %124, %105
  ret i32 0
}

declare dso_local i32 @__isoc99_scanf(i8*, ...) #1

; Function Attrs: nounwind readonly
declare dso_local i64 @strlen(i8*) #2

declare dso_local i32 @printf(i8*, ...) #1


!llvm.module.flags = !{!0}
!llvm.ident = !{!1}

!0 = !{i32 1, !"wchar_size", i32 4}
!1 = !{!"clang version 10.0.0-4ubuntu1 "}
